; Function Attrs: nofree norecurse nosync nounwind memory(argmem: readwrite) uwtable
define hidden void @av1_filter_intra_edge_high_c(ptr nocapture noundef %0, i32 noundef %1, i32 noundef %2) local_unnamed_addr #0 {
  %4 = alloca [129 x i16], align 16
  %.not = icmp eq i32 %2, 0
  br i1 %.not, label %.loopexit, label %5

5:                                                ; preds = %3
  %6 = sext i32 %1 to i64
  %7 = shl nsw i64 %6, 1
  call void @llvm.memcpy.p0.p0.i64(ptr nonnull align 16 %4, ptr align 2 %0, i64 %7, i1 false)
  %8 = icmp sgt i32 %1, 1
  br i1 %8, label %.preheader.lr.ph, label %.loopexit

.preheader.lr.ph:                                 ; preds = %5
  %9 = add nsw i32 %2, -1
  %10 = add nsw i32 %1, -1
  %11 = sext i32 %9 to i64
  %wide.trip.count = zext nneg i32 %1 to i64
  br label %.preheader

.preheader:                                       ; preds = %.preheader.lr.ph, %26
  %indvars.iv32 = phi i64 [ 1, %.preheader.lr.ph ], [ %indvars.iv.next33, %26 ]
  %12 = add nuw i64 %indvars.iv32, 4294967294
  br label %13

13:                                               ; preds = %.preheader, %13
  %indvars.iv = phi i64 [ 0, %.preheader ], [ %indvars.iv.next, %13 ]
  %.02528 = phi i32 [ 0, %.preheader ], [ %25, %13 ]
  %14 = add i64 %12, %indvars.iv
  %15 = trunc i64 %14 to i32
  %16 = tail call i32 @llvm.smax.i32(i32 %15, i32 0)
  %17 = tail call i32 @llvm.smin.i32(i32 %16, i32 %10)
  %18 = sext i32 %17 to i64
  %19 = getelementptr inbounds [129 x i16], ptr %4, i64 0, i64 %18
  %20 = load i16, ptr %19, align 2
  %21 = zext i16 %20 to i32
  %22 = getelementptr inbounds [3 x [5 x i32]], ptr @__const.av1_filter_intra_edge_high_c.kernel, i64 0, i64 %11, i64 %indvars.iv
  %23 = load i32, ptr %22, align 4
  %24 = mul nsw i32 %23, %21
  %25 = add nsw i32 %24, %.02528
  %indvars.iv.next = add nuw nsw i64 %indvars.iv, 1
  %exitcond.not = icmp eq i64 %indvars.iv.next, 5
  br i1 %exitcond.not, label %26, label %13, !llvm.loop !28

26:                                               ; preds = %13
  %27 = add nsw i32 %25, 8
  %28 = lshr i32 %27, 4
  %29 = trunc i32 %28 to i16
  %30 = getelementptr inbounds i16, ptr %0, i64 %indvars.iv32
  store i16 %29, ptr %30, align 2
  %indvars.iv.next33 = add nuw nsw i64 %indvars.iv32, 1
  %exitcond35.not = icmp eq i64 %indvars.iv.next33, %wide.trip.count
  br i1 %exitcond35.not, label %.loopexit, label %.preheader, !llvm.loop !29

.loopexit:                                        ; preds = %26, %5, %3
  ret void
}